; Function Attrs: mustprogress uwtable
define hidden void @_ZN21quantifier_macro_infoC2ER11ast_managerP10quantifier(ptr noundef nonnull align 8 dereferenceable(88) %this, ptr noundef nonnull align 8 dereferenceable(976) %m, ptr noundef %q) unnamed_addr #3 align 2 personality ptr @__gxx_personality_v0 {
entry:
  store ptr getelementptr inbounds ({ [6 x ptr] }, ptr @_ZTV21quantifier_macro_info, i64 0, i32 0, i64 2), ptr %this, align 8
  %m2 = getelementptr inbounds i8, ptr %this, i64 8
  store ptr %m, ptr %m2, align 8
  %m_flat_q = getelementptr inbounds i8, ptr %this, i64 16
  store ptr %q, ptr %m_flat_q, align 8
  %m_manager.i = getelementptr inbounds i8, ptr %this, i64 24
  store ptr %m, ptr %m_manager.i, align 8
  %tobool.not.i.i = icmp eq ptr %q, null
  br i1 %tobool.not.i.i, label %_ZN7obj_refI10quantifier11ast_managerEC2EPS0_RS1_.exit, label %_ZN11ast_manager7inc_refEP3ast.exit.i.i

_ZN11ast_manager7inc_refEP3ast.exit.i.i:          ; preds = %entry
  %m_ref_count.i.i.i.i = getelementptr inbounds i8, ptr %q, i64 8
  %0 = load i32, ptr %m_ref_count.i.i.i.i, align 4
  %inc.i.i.i.i = add i32 %0, 1
  store i32 %inc.i.i.i.i, ptr %m_ref_count.i.i.i.i, align 4
  br label %_ZN7obj_refI10quantifier11ast_managerEC2EPS0_RS1_.exit

_ZN7obj_refI10quantifier11ast_managerEC2EPS0_RS1_.exit: ; preds = %entry, %_ZN11ast_manager7inc_refEP3ast.exit.i.i
  %m_is_auf = getelementptr inbounds i8, ptr %this, i64 32
  store i8 1, ptr %m_is_auf, align 8
  %m_has_x_eq_y = getelementptr inbounds i8, ptr %this, i64 33
  store i8 0, ptr %m_has_x_eq_y, align 1
  %m_ng_decls = getelementptr inbounds i8, ptr %this, i64 40
  %call.i.i.i.i6 = invoke noalias noundef ptr @_ZN6memory8allocateEm(i64 noundef 64)
          to label %invoke.cont4 unwind label %lpad

invoke.cont4:                                     ; preds = %_ZN7obj_refI10quantifier11ast_managerEC2EPS0_RS1_.exit
  tail call void @llvm.memset.p0.i64(ptr noundef nonnull align 8 dereferenceable(64) %call.i.i.i.i6, i8 0, i64 64, i1 false)
  store ptr %call.i.i.i.i6, ptr %m_ng_decls, align 8
  %m_capacity.i.i = getelementptr inbounds i8, ptr %this, i64 48
  store i32 8, ptr %m_capacity.i.i, align 8
  %m_size.i.i = getelementptr inbounds i8, ptr %this, i64 52
  store i32 0, ptr %m_size.i.i, align 4
  %m_num_deleted.i.i = getelementptr inbounds i8, ptr %this, i64 56
  store i32 0, ptr %m_num_deleted.i.i, align 8
  %m_cond_macros = getelementptr inbounds i8, ptr %this, i64 64
  %m_manager.i7 = getelementptr inbounds i8, ptr %this, i64 80
  tail call void @llvm.memset.p0.i64(ptr noundef nonnull align 8 dereferenceable(16) %m_cond_macros, i8 0, i64 16, i1 false)
  store ptr %m, ptr %m_manager.i7, align 8
  invoke void @_ZN21quantifier_macro_info24collect_macro_candidatesEP10quantifier(ptr noundef nonnull align 8 dereferenceable(88) %this, ptr noundef %q)
          to label %invoke.cont8 unwind label %lpad7

invoke.cont8:                                     ; preds = %invoke.cont4
  ret void

lpad:                                             ; preds = %_ZN7obj_refI10quantifier11ast_managerEC2EPS0_RS1_.exit
  %1 = landingpad { ptr, i32 }
          cleanup
  br label %ehcleanup10

lpad7:                                            ; preds = %invoke.cont4
  %2 = landingpad { ptr, i32 }
          cleanup
  %m_the_one = getelementptr inbounds i8, ptr %this, i64 72
  tail call void @_ZN7obj_refI9func_decl11ast_managerED2Ev(ptr noundef nonnull align 8 dereferenceable(16) %m_the_one) #12
  tail call void @_ZN17scoped_ptr_vectorI10cond_macroED2Ev(ptr noundef nonnull align 8 dereferenceable(8) %m_cond_macros) #12
  tail call void @_ZN13obj_hashtableI9func_declED2Ev(ptr noundef nonnull align 8 dereferenceable(20) %m_ng_decls) #12
  br label %ehcleanup10

ehcleanup10:                                      ; preds = %lpad7, %lpad
  %.pn.pn = phi { ptr, i32 } [ %2, %lpad7 ], [ %1, %lpad ]
  tail call void @_ZN7obj_refI10quantifier11ast_managerED2Ev(ptr noundef nonnull align 8 dereferenceable(16) %m_flat_q) #12
  resume { ptr, i32 } %.pn.pn
}